target datalayout = "e-m:e-p270:32:32-p271:32:32-p272:64:64-i64:64-i128:128-f80:128-n8:16:32:64-S128"
target triple = "x86_64-pc-linux-gnu"

; Function Attrs: inlinehint nounwind sspstrong uwtable
define internal ptr @vm_ci_new_(i64 noundef %0, i32 noundef %1, i32 noundef %2, ptr noundef %3, ptr noundef %4, i32 noundef %5) #3 {
  %7 = alloca ptr, align 8
  %8 = alloca i64, align 8
  %9 = alloca i32, align 4
  %10 = alloca i32, align 4
  %11 = alloca ptr, align 8
  %12 = alloca ptr, align 8
  %13 = alloca i32, align 4
  %14 = alloca i8, align 1
  %15 = alloca ptr, align 8
  store i64 %0, ptr %8, align 8, !tbaa !7
  store i32 %1, ptr %9, align 4, !tbaa !41
  store i32 %2, ptr %10, align 4, !tbaa !41
  store ptr %3, ptr %11, align 8, !tbaa !799
  store ptr %4, ptr %12, align 8, !tbaa !91
  store i32 %5, ptr %13, align 4, !tbaa !41
  %16 = load i64, ptr %8, align 8, !tbaa !7
  %17 = and i64 %16, -4294967296
  %18 = icmp ne i64 %17, 0
  br i1 %18, label %19, label %20

19:                                               ; preds = %6
  br i1 false, label %37, label %50

20:                                               ; preds = %6
  %21 = load i32, ptr %9, align 4, !tbaa !41
  %22 = zext i32 %21 to i64
  %23 = and i64 %22, -65536
  %24 = icmp ne i64 %23, 0
  br i1 %24, label %25, label %26

25:                                               ; preds = %20
  br i1 false, label %37, label %50

26:                                               ; preds = %20
  %27 = load i32, ptr %10, align 4, !tbaa !41
  %28 = zext i32 %27 to i64
  %29 = and i64 %28, -32768
  %30 = icmp ne i64 %29, 0
  br i1 %30, label %31, label %32

31:                                               ; preds = %26
  br i1 false, label %37, label %50

32:                                               ; preds = %26
  %33 = load ptr, ptr %11, align 8, !tbaa !799
  %34 = icmp ne ptr %33, null
  br i1 %34, label %35, label %36

35:                                               ; preds = %32
  br i1 false, label %37, label %50

36:                                               ; preds = %32
  br i1 true, label %37, label %50

37:                                               ; preds = %36, %35, %31, %25, %19
  %38 = load i64, ptr %8, align 8, !tbaa !7
  %39 = shl i64 %38, 32
  %40 = load i32, ptr %9, align 4, !tbaa !41
  %41 = zext i32 %40 to i64
  %42 = shl i64 %41, 16
  %43 = or i64 %39, %42
  %44 = load i32, ptr %10, align 4, !tbaa !41
  %45 = zext i32 %44 to i64
  %46 = shl i64 %45, 1
  %47 = or i64 %43, %46
  %48 = or i64 %47, 1
  %49 = inttoptr i64 %48 to ptr
  store ptr %49, ptr %7, align 8
  br label %62

50:                                               ; preds = %36, %35, %31, %25, %19
  call void @llvm.lifetime.start.p0(i64 1, ptr %14) #31
  store i8 0, ptr %14, align 1, !tbaa !109
  call void @llvm.lifetime.start.p0(i64 8, ptr %15) #31
  %51 = load i64, ptr %8, align 8, !tbaa !7
  %52 = load i32, ptr %9, align 4, !tbaa !41
  %53 = load i32, ptr %10, align 4, !tbaa !41
  %54 = load ptr, ptr %11, align 8, !tbaa !799
  %55 = call ptr @rb_vm_ci_lookup(i64 noundef %51, i32 noundef %52, i32 noundef %53, ptr noundef %54)
  store ptr %55, ptr %15, align 8, !tbaa !791
  %56 = load ptr, ptr %11, align 8, !tbaa !799
  %57 = icmp ne ptr %56, null
  br i1 %57, label %58, label %59

58:                                               ; preds = %50
  br label %60

59:                                               ; preds = %50
  br label %60

60:                                               ; preds = %59, %58
  %61 = load ptr, ptr %15, align 8, !tbaa !791
  store ptr %61, ptr %7, align 8
  call void @llvm.lifetime.end.p0(i64 8, ptr %15) #31
  call void @llvm.lifetime.end.p0(i64 1, ptr %14) #31
  br label %62

62:                                               ; preds = %60, %37
  %63 = load ptr, ptr %7, align 8
  ret ptr %63
}