; Function Attrs: inlinehint nounwind sspstrong uwtable
define internal fastcc ptr @vm_ci_new_(i64 noundef %0, i32 noundef %1, i32 noundef %2, ptr noundef %3) unnamed_addr #15 {
  %.not = icmp ult i64 %0, 4294967296
  %.not13 = icmp ult i32 %1, 65536
  %or.cond14 = and i1 %.not, %.not13
  br i1 %or.cond14, label %5, label %18

5:                                                ; preds = %4
  %6 = icmp ugt i32 %2, 32767
  %7 = icmp ne ptr %3, null
  %or.cond = or i1 %6, %7
  br i1 %or.cond, label %18, label %8

8:                                                ; preds = %5
  %9 = shl nuw i64 %0, 32
  %10 = shl nuw i32 %1, 16
  %11 = zext i32 %10 to i64
  %12 = or disjoint i64 %9, %11
  %13 = shl nuw nsw i32 %2, 1
  %14 = zext nneg i32 %13 to i64
  %15 = or disjoint i64 %12, %14
  %16 = or disjoint i64 %15, 1
  %17 = inttoptr i64 %16 to ptr
  br label %20

18:                                               ; preds = %5, %4
  %19 = tail call ptr @rb_vm_ci_lookup(i64 noundef %0, i32 noundef %1, i32 noundef %2, ptr noundef %3) #38
  br label %20

20:                                               ; preds = %18, %8
  %.0 = phi ptr [ %19, %18 ], [ %17, %8 ]
  ret ptr %.0
}